target datalayout = "e-m:e-p270:32:32-p271:32:32-p272:64:64-i64:64-i128:128-f80:128-n8:16:32:64-S128"
target triple = "x86_64-pc-linux-gnu"

%"class.base::SharedMemory" = type { i32, i32, i64, ptr, i8, i64 }
%"struct.base::FileDescriptor" = type <{ i32, i8, [3 x i8] }>
%"class.logging::LogMessage" = type <{ i32, [4 x i8], %"class.std::__cxx11::basic_ostringstream", i64, ptr, i32, [4 x i8] }>
%"class.std::__cxx11::basic_ostringstream" = type { %"class.std::basic_ostream.base", %"class.std::__cxx11::basic_stringbuf", %"class.std::basic_ios" }
%"class.std::basic_ostream.base" = type { ptr }
%"class.std::__cxx11::basic_stringbuf" = type { %"class.std::basic_streambuf", i32, %"class.std::__cxx11::basic_string" }
%"class.std::basic_streambuf" = type { ptr, ptr, ptr, ptr, ptr, ptr, ptr, %"class.std::locale" }
%"class.std::locale" = type { ptr }
%"class.std::__cxx11::basic_string" = type { %"struct.std::__cxx11::basic_string<char>::_Alloc_hider", i64, %union.anon }
%"struct.std::__cxx11::basic_string<char>::_Alloc_hider" = type { ptr }
%union.anon = type { i64, [8 x i8] }
%"class.std::basic_ios" = type { %"class.std::ios_base", ptr, i8, i8, ptr, ptr, ptr, ptr }
%"class.std::ios_base" = type { ptr, i64, i64, i32, i32, i32, ptr, %"struct.std::ios_base::_Words", [8 x %"struct.std::ios_base::_Words"], i32, ptr, %"class.std::locale" }
%"struct.std::ios_base::_Words" = type { ptr, i64 }
%"class.logging::CheckOpResult" = type { ptr }

@.str = private unnamed_addr constant [132 x i8] c"generated/home/dtcxzyw/WorkSpace/Projects/compilers/llvm-opt-benchmark/bench/libquic/libquic/src/base/memory/shared_memory_posix.cc\00", align 1
@.str.16 = private unnamed_addr constant [27 x i8] c"readonly_mapped_file_ >= 0\00", align 1

; Function Attrs: mustprogress nounwind uwtable
define noundef zeroext i1 @_ZN4base12SharedMemory5UnmapEv(ptr noundef nonnull align 8 dereferenceable(40) %0) #0 align 2 {
  %2 = alloca i1, align 1
  %3 = alloca ptr, align 8
  store ptr %0, ptr %3, align 8, !tbaa !17
  %4 = load ptr, ptr %3, align 8
  %5 = getelementptr inbounds nuw %"class.base::SharedMemory", ptr %4, i32 0, i32 3
  %6 = load ptr, ptr %5, align 8, !tbaa !24
  %7 = icmp eq ptr %6, null
  br i1 %7, label %8, label %9

8:                                                ; preds = %1
  store i1 false, ptr %2, align 1
  br label %17

9:                                                ; preds = %1
  %10 = getelementptr inbounds nuw %"class.base::SharedMemory", ptr %4, i32 0, i32 3
  %11 = load ptr, ptr %10, align 8, !tbaa !24
  %12 = getelementptr inbounds nuw %"class.base::SharedMemory", ptr %4, i32 0, i32 2
  %13 = load i64, ptr %12, align 8, !tbaa !23
  %14 = call i32 @munmap(ptr noundef %11, i64 noundef %13) #16
  %15 = getelementptr inbounds nuw %"class.base::SharedMemory", ptr %4, i32 0, i32 3
  store ptr null, ptr %15, align 8, !tbaa !24
  %16 = getelementptr inbounds nuw %"class.base::SharedMemory", ptr %4, i32 0, i32 2
  store i64 0, ptr %16, align 8, !tbaa !23
  store i1 true, ptr %2, align 1
  br label %17

17:                                               ; preds = %9, %8
  %18 = load i1, ptr %2, align 1
  ret i1 %18
}

; Function Attrs: mustprogress nounwind uwtable
define linkonce_odr noundef nonnull align 8 dereferenceable(8) ptr @_ZN7logging10LogMessage6streamEv(ptr noundef nonnull align 8 dereferenceable(404) %0) #0 comdat align 2 {
  %2 = alloca ptr, align 8
  store ptr %0, ptr %2, align 8, !tbaa !41
  %3 = load ptr, ptr %2, align 8
  %4 = getelementptr inbounds nuw %"class.logging::LogMessage", ptr %3, i32 0, i32 2
  ret ptr %4
}

; Function Attrs: mustprogress nounwind uwtable
define linkonce_odr noundef ptr @_ZN7logging13CheckOpResult7messageB5cxx11Ev(ptr noundef nonnull align 8 dereferenceable(8) %0) #0 comdat align 2 {
  %2 = alloca ptr, align 8
  store ptr %0, ptr %2, align 8, !tbaa !36
  %3 = load ptr, ptr %2, align 8
  %4 = getelementptr inbounds nuw %"class.logging::CheckOpResult", ptr %3, i32 0, i32 0
  %5 = load ptr, ptr %4, align 8, !tbaa !39
  ret ptr %5
}

; Function Attrs: mustprogress nounwind uwtable
define linkonce_odr noundef zeroext i1 @_ZNK7logging13CheckOpResultcvbEv(ptr noundef nonnull align 8 dereferenceable(8) %0) #0 comdat align 2 {
  %2 = alloca ptr, align 8
  store ptr %0, ptr %2, align 8, !tbaa !36
  %3 = load ptr, ptr %2, align 8
  %4 = getelementptr inbounds nuw %"class.logging::CheckOpResult", ptr %3, i32 0, i32 0
  %5 = load ptr, ptr %4, align 8, !tbaa !39
  %6 = icmp ne ptr %5, null
  %7 = xor i1 %6, true
  ret i1 %7
}

; Function Attrs: mustprogress nounwind uwtable
define linkonce_odr void @_ZN7logging13CheckOpResultC2EPNSt7__cxx1112basic_stringIcSt11char_traitsIcESaIcEEE(ptr noundef nonnull align 8 dereferenceable(8) %0, ptr noundef %1) unnamed_addr #0 comdat align 2 {
  %3 = alloca ptr, align 8
  %4 = alloca ptr, align 8
  store ptr %0, ptr %3, align 8, !tbaa !36
  store ptr %1, ptr %4, align 8, !tbaa !38
  %5 = load ptr, ptr %3, align 8
  %6 = getelementptr inbounds nuw %"class.logging::CheckOpResult", ptr %5, i32 0, i32 0
  %7 = load ptr, ptr %4, align 8, !tbaa !38
  store ptr %7, ptr %6, align 8, !tbaa !39
  ret void
}

; Function Attrs: inlinehint mustprogress uwtable
define linkonce_odr noundef ptr @_ZN7logging11CheckGEImplB5cxx11EiiPKc(i32 noundef %0, i32 noundef %1, ptr noundef %2) #7 comdat {
  %4 = alloca ptr, align 8
  %5 = alloca i32, align 4
  %6 = alloca i32, align 4
  %7 = alloca ptr, align 8
  store i32 %0, ptr %5, align 4, !tbaa !34
  store i32 %1, ptr %6, align 4, !tbaa !34
  store ptr %2, ptr %7, align 8, !tbaa !71
  %8 = load i32, ptr %5, align 4, !tbaa !34
  %9 = load i32, ptr %6, align 4, !tbaa !34
  %10 = icmp sge i32 %8, %9
  br i1 %10, label %11, label %12

11:                                               ; preds = %3
  store ptr null, ptr %4, align 8
  br label %15

12:                                               ; preds = %3
  %13 = load ptr, ptr %7, align 8, !tbaa !71
  %14 = call noundef ptr @_ZN7logging17MakeCheckOpStringIiiEEPNSt7__cxx1112basic_stringIcSt11char_traitsIcESaIcEEERKT_RKT0_PKc(ptr noundef nonnull align 4 dereferenceable(4) %5, ptr noundef nonnull align 4 dereferenceable(4) %6, ptr noundef %13)
  store ptr %14, ptr %4, align 8
  br label %15

15:                                               ; preds = %12, %11
  %16 = load ptr, ptr %4, align 8
  ret ptr %16
}

; Function Attrs: mustprogress uwtable
define noundef zeroext i1 @_ZN4base12SharedMemory20ShareToProcessCommonEiPNS_14FileDescriptorEbNS0_9ShareModeE(ptr noundef nonnull align 8 dereferenceable(40) %0, i32 noundef %1, ptr noundef %2, i1 noundef zeroext %3, i32 noundef %4) #2 align 2 personality ptr @__gxx_personality_v0 {
  %6 = alloca i1, align 1
  %7 = alloca ptr, align 8
  %8 = alloca i32, align 4
  %9 = alloca ptr, align 8
  %10 = alloca i8, align 1
  %11 = alloca i32, align 4
  %12 = alloca i32, align 4
  %13 = alloca %"class.logging::CheckOpResult", align 8
  %14 = alloca %"class.logging::LogMessage", align 8
  %15 = alloca ptr, align 8
  %16 = alloca i32, align 4
  %17 = alloca i32, align 4
  %18 = alloca i32, align 4
  %19 = alloca i32, align 4
  %20 = alloca i32, align 4
  store ptr %0, ptr %7, align 8, !tbaa !17
  store i32 %1, ptr %8, align 4, !tbaa !34
  store ptr %2, ptr %9, align 8, !tbaa !27
  %21 = zext i1 %3 to i8
  store i8 %21, ptr %10, align 1, !tbaa !29
  store i32 %4, ptr %11, align 4, !tbaa !99
  %22 = load ptr, ptr %7, align 8
  call void @llvm.lifetime.start.p0(i64 4, ptr %12) #16
  store i32 -1, ptr %12, align 4, !tbaa !34
  %23 = load i32, ptr %11, align 4, !tbaa !99
  switch i32 %23, label %44 [
    i32 1, label %24
    i32 0, label %27
  ]

24:                                               ; preds = %5
  %25 = getelementptr inbounds nuw %"class.base::SharedMemory", ptr %22, i32 0, i32 0
  %26 = load i32, ptr %25, align 8, !tbaa !19
  store i32 %26, ptr %12, align 4, !tbaa !34
  br label %44

27:                                               ; preds = %5
  call void @llvm.lifetime.start.p0(i64 8, ptr %13) #16
  %28 = getelementptr inbounds nuw %"class.base::SharedMemory", ptr %22, i32 0, i32 1
  %29 = load i32, ptr %28, align 4, !tbaa !22
  %30 = call noundef ptr @_ZN7logging11CheckGEImplB5cxx11EiiPKc(i32 noundef %29, i32 noundef 0, ptr noundef @.str.16)
  call void @_ZN7logging13CheckOpResultC2EPNSt7__cxx1112basic_stringIcSt11char_traitsIcESaIcEEE(ptr noundef nonnull align 8 dereferenceable(8) %13, ptr noundef %30)
  %31 = call noundef zeroext i1 @_ZNK7logging13CheckOpResultcvbEv(ptr noundef nonnull align 8 dereferenceable(8) %13)
  br i1 %31, label %32, label %33

32:                                               ; preds = %27
  br label %41

33:                                               ; preds = %27
  call void @llvm.lifetime.start.p0(i64 408, ptr %14) #16
  %34 = call noundef ptr @_ZN7logging13CheckOpResult7messageB5cxx11Ev(ptr noundef nonnull align 8 dereferenceable(8) %13)
  call void @_ZN7logging10LogMessageC1EPKciPNSt7__cxx1112basic_stringIcSt11char_traitsIcESaIcEEE(ptr noundef nonnull align 8 dereferenceable(404) %14, ptr noundef @.str, i32 noundef 489, ptr noundef %34)
  %35 = invoke noundef nonnull align 8 dereferenceable(8) ptr @_ZN7logging10LogMessage6streamEv(ptr noundef nonnull align 8 dereferenceable(404) %14)
          to label %36 unwind label %37

36:                                               ; preds = %33
  call void @_ZN7logging10LogMessageD1Ev(ptr noundef nonnull align 8 dereferenceable(404) %14) #16
  call void @llvm.lifetime.end.p0(i64 408, ptr %14) #16
  br label %41

37:                                               ; preds = %33
  %38 = landingpad { ptr, i32 }
          cleanup
  %39 = extractvalue { ptr, i32 } %38, 0
  store ptr %39, ptr %15, align 8
  %40 = extractvalue { ptr, i32 } %38, 1
  store i32 %40, ptr %16, align 4
  call void @_ZN7logging10LogMessageD1Ev(ptr noundef nonnull align 8 dereferenceable(404) %14) #16
  call void @llvm.lifetime.end.p0(i64 408, ptr %14) #16
  call void @llvm.lifetime.end.p0(i64 8, ptr %13) #16
  call void @llvm.lifetime.end.p0(i64 4, ptr %12) #16
  br label %81

41:                                               ; preds = %36, %32
  call void @llvm.lifetime.end.p0(i64 8, ptr %13) #16
  %42 = getelementptr inbounds nuw %"class.base::SharedMemory", ptr %22, i32 0, i32 1
  %43 = load i32, ptr %42, align 4, !tbaa !22
  store i32 %43, ptr %12, align 4, !tbaa !34
  br label %44

44:                                               ; preds = %5, %41, %24
  call void @llvm.lifetime.start.p0(i64 4, ptr %17) #16
  call void @llvm.lifetime.start.p0(i64 4, ptr %18) #16
  br label %45

45:                                               ; preds = %55, %44
  %46 = load i32, ptr %12, align 4, !tbaa !34
  %47 = call i32 @dup(i32 noundef %46) #16
  store i32 %47, ptr %18, align 4, !tbaa !34
  br label %48

48:                                               ; preds = %45
  %49 = load i32, ptr %18, align 4, !tbaa !34
  %50 = icmp eq i32 %49, -1
  br i1 %50, label %51, label %55

51:                                               ; preds = %48
  %52 = call ptr @__errno_location() #17
  %53 = load i32, ptr %52, align 4, !tbaa !34
  %54 = icmp eq i32 %53, 4
  br label %55

55:                                               ; preds = %51, %48
  %56 = phi i1 [ false, %48 ], [ %54, %51 ]
  br i1 %56, label %45, label %57, !llvm.loop !101

57:                                               ; preds = %55
  %58 = load i32, ptr %18, align 4, !tbaa !34
  store i32 %58, ptr %19, align 4, !tbaa !34
  call void @llvm.lifetime.end.p0(i64 4, ptr %18) #16
  %59 = load i32, ptr %19, align 4, !tbaa !34
  store i32 %59, ptr %17, align 4, !tbaa !34
  %60 = load i32, ptr %17, align 4, !tbaa !34
  %61 = icmp slt i32 %60, 0
  br i1 %61, label %62, label %68

62:                                               ; preds = %57
  %63 = load i8, ptr %10, align 1, !tbaa !29, !range !32, !noundef !33
  %64 = trunc i8 %63 to i1
  br i1 %64, label %65, label %67

65:                                               ; preds = %62
  %66 = call noundef zeroext i1 @_ZN4base12SharedMemory5UnmapEv(ptr noundef nonnull align 8 dereferenceable(40) %22)
  call void @_ZN4base12SharedMemory5CloseEv(ptr noundef nonnull align 8 dereferenceable(40) %22)
  br label %67

67:                                               ; preds = %65, %62
  store i1 false, ptr %6, align 1
  store i32 1, ptr %20, align 4
  br label %79

68:                                               ; preds = %57
  %69 = load i32, ptr %17, align 4, !tbaa !34
  %70 = load ptr, ptr %9, align 8, !tbaa !27
  %71 = getelementptr inbounds nuw %"struct.base::FileDescriptor", ptr %70, i32 0, i32 0
  store i32 %69, ptr %71, align 4, !tbaa !30
  %72 = load ptr, ptr %9, align 8, !tbaa !27
  %73 = getelementptr inbounds nuw %"struct.base::FileDescriptor", ptr %72, i32 0, i32 1
  store i8 1, ptr %73, align 4, !tbaa !35
  %74 = load i8, ptr %10, align 1, !tbaa !29, !range !32, !noundef !33
  %75 = trunc i8 %74 to i1
  br i1 %75, label %76, label %78

76:                                               ; preds = %68
  %77 = call noundef zeroext i1 @_ZN4base12SharedMemory5UnmapEv(ptr noundef nonnull align 8 dereferenceable(40) %22)
  call void @_ZN4base12SharedMemory5CloseEv(ptr noundef nonnull align 8 dereferenceable(40) %22)
  br label %78

78:                                               ; preds = %76, %68
  store i1 true, ptr %6, align 1
  store i32 1, ptr %20, align 4
  br label %79

79:                                               ; preds = %78, %67
  call void @llvm.lifetime.end.p0(i64 4, ptr %17) #16
  call void @llvm.lifetime.end.p0(i64 4, ptr %12) #16
  %80 = load i1, ptr %6, align 1
  ret i1 %80

81:                                               ; preds = %37
  %82 = load ptr, ptr %15, align 8
  %83 = load i32, ptr %16, align 4
  %84 = insertvalue { ptr, i32 } poison, ptr %82, 0
  %85 = insertvalue { ptr, i32 } %84, i32 %83, 1
  resume { ptr, i32 } %85
}