; Function Attrs: mustprogress uwtable
define noundef zeroext i1 @_ZN4base12SharedMemory20ShareToProcessCommonEiPNS_14FileDescriptorEbNS0_9ShareModeE(ptr noundef nonnull align 8 captures(none) dereferenceable(40) %0, i32 noundef %1, ptr noundef writeonly captures(none) %2, i1 noundef zeroext %3, i32 noundef %4) local_unnamed_addr #5 align 2 personality ptr @__gxx_personality_v0 {
  %6 = alloca i32, align 4
  %7 = alloca i32, align 4
  %8 = alloca %"class.logging::LogMessage", align 8
  switch i32 %4, label %18 [
    i32 1, label %9
    i32 0, label %11
  ]

9:                                                ; preds = %5
  %10 = load i32, ptr %0, align 8, !tbaa !15
  br label %18

11:                                               ; preds = %5
  %12 = getelementptr inbounds nuw i8, ptr %0, i64 4
  %13 = load i32, ptr %12, align 4, !tbaa !18
  call void @llvm.lifetime.start.p0(i64 4, ptr nonnull %6)
  call void @llvm.lifetime.start.p0(i64 4, ptr nonnull %7)
  store i32 %13, ptr %6, align 4, !tbaa !25
  store i32 0, ptr %7, align 4, !tbaa !25
  %.not.i = icmp slt i32 %13, 0
  br i1 %.not.i, label %_ZN7logging11CheckGEImplB5cxx11EiiPKc.exit, label %_ZN7logging11CheckGEImplB5cxx11EiiPKc.exit.thread

_ZN7logging11CheckGEImplB5cxx11EiiPKc.exit.thread: ; preds = %11
  call void @llvm.lifetime.end.p0(i64 4, ptr nonnull %6)
  call void @llvm.lifetime.end.p0(i64 4, ptr nonnull %7)
  br label %16

_ZN7logging11CheckGEImplB5cxx11EiiPKc.exit:       ; preds = %11
  %14 = call noundef ptr @_ZN7logging17MakeCheckOpStringIiiEEPNSt7__cxx1112basic_stringIcSt11char_traitsIcESaIcEEERKT_RKT0_PKc(ptr noundef nonnull align 4 dereferenceable(4) %6, ptr noundef nonnull align 4 dereferenceable(4) %7, ptr noundef nonnull @.str.16)
  call void @llvm.lifetime.end.p0(i64 4, ptr nonnull %6)
  call void @llvm.lifetime.end.p0(i64 4, ptr nonnull %7)
  %.not.i14 = icmp eq ptr %14, null
  br i1 %.not.i14, label %16, label %15

15:                                               ; preds = %_ZN7logging11CheckGEImplB5cxx11EiiPKc.exit
  call void @llvm.lifetime.start.p0(i64 408, ptr nonnull %8) #22
  call void @_ZN7logging10LogMessageC1EPKciPNSt7__cxx1112basic_stringIcSt11char_traitsIcESaIcEEE(ptr noundef nonnull align 8 dereferenceable(404) %8, ptr noundef nonnull @.str, i32 noundef 489, ptr noundef nonnull %14)
  call void @_ZN7logging10LogMessageD1Ev(ptr noundef nonnull align 8 dereferenceable(404) %8) #22
  call void @llvm.lifetime.end.p0(i64 408, ptr nonnull %8) #22
  br label %16

16:                                               ; preds = %_ZN7logging11CheckGEImplB5cxx11EiiPKc.exit.thread, %_ZN7logging11CheckGEImplB5cxx11EiiPKc.exit, %15
  %17 = load i32, ptr %12, align 4, !tbaa !18
  br label %18

18:                                               ; preds = %16, %9, %5
  %.012 = phi i32 [ -1, %5 ], [ %17, %16 ], [ %10, %9 ]
  br label %19

19:                                               ; preds = %22, %18
  %20 = call i32 @dup(i32 noundef %.012) #22
  %21 = icmp eq i32 %20, -1
  br i1 %21, label %22, label %.critedge

22:                                               ; preds = %19
  %23 = tail call ptr @__errno_location() #24
  %24 = load i32, ptr %23, align 4, !tbaa !25
  %25 = icmp eq i32 %24, 4
  br i1 %25, label %19, label %.critedge.thread, !llvm.loop !68

.critedge:                                        ; preds = %19
  %26 = icmp sgt i32 %20, -1
  br i1 %26, label %30, label %.critedge.thread

.critedge.thread:                                 ; preds = %22, %.critedge
  br i1 %3, label %27, label %38

27:                                               ; preds = %.critedge.thread
  %28 = getelementptr inbounds nuw i8, ptr %0, i64 16
  %29 = load ptr, ptr %28, align 8, !tbaa !23
  %.not19 = icmp eq ptr %29, null
  br i1 %.not19, label %.sink.split, label %.sink.split.sink.split

30:                                               ; preds = %.critedge
  store i32 %20, ptr %2, align 4, !tbaa !20
  %31 = getelementptr inbounds nuw i8, ptr %2, i64 4
  store i8 1, ptr %31, align 4, !tbaa !69
  br i1 %3, label %32, label %38

32:                                               ; preds = %30
  %33 = getelementptr inbounds nuw i8, ptr %0, i64 16
  %34 = load ptr, ptr %33, align 8, !tbaa !23
  %.not = icmp eq ptr %34, null
  br i1 %.not, label %.sink.split, label %.sink.split.sink.split

.sink.split.sink.split:                           ; preds = %32, %27
  %.sink23 = phi ptr [ %29, %27 ], [ %34, %32 ]
  %.ph.ph = phi i1 [ false, %27 ], [ true, %32 ]
  %35 = getelementptr inbounds nuw i8, ptr %0, i64 8
  %36 = load i64, ptr %35, align 8, !tbaa !24
  %37 = call i32 @munmap(ptr noundef nonnull %.sink23, i64 noundef %36) #22
  call void @llvm.memset.p0.i64(ptr noundef nonnull align 8 dereferenceable(16) %35, i8 0, i64 16, i1 false)
  br label %.sink.split

.sink.split:                                      ; preds = %.sink.split.sink.split, %32, %27
  %.ph = phi i1 [ false, %27 ], [ true, %32 ], [ %.ph.ph, %.sink.split.sink.split ]
  call void @_ZN4base12SharedMemory5CloseEv(ptr noundef nonnull align 8 dereferenceable(40) %0)
  br label %38

38:                                               ; preds = %.sink.split, %30, %.critedge.thread
  %39 = phi i1 [ true, %30 ], [ false, %.critedge.thread ], [ %.ph, %.sink.split ]
  ret i1 %39
}